target datalayout = "e-m:e-p270:32:32-p271:32:32-p272:64:64-i64:64-i128:128-f80:128-n8:16:32:64-S128"
target triple = "x86_64-pc-linux-gnu"

%struct.state = type { i32, i32, i32, i32, i8, i8, [2000 x i64], [2000 x i8], [256 x %struct.ttinfo], [512 x i8], [50 x %struct.lsinfo], i32 }
%struct.ttinfo = type { i32, i8, i32, i8, i8 }
%struct.lsinfo = type { i64, i64 }
%struct.pg_tz = type { [256 x i8], %struct.state }
%struct.pg_tzenum = type { i32, i32, [10 x ptr], [10 x ptr], %struct.pg_tz }

; Function Attrs: nounwind uwtable
define dso_local void @pg_tzenumerate_end(ptr noundef %0) #0 {
  %2 = alloca ptr, align 8
  store ptr %0, ptr %2, align 8
  br label %3

3:                                                ; preds = %8, %1
  %4 = load ptr, ptr %2, align 8
  %5 = getelementptr inbounds nuw %struct.pg_tzenum, ptr %4, i32 0, i32 1
  %6 = load i32, ptr %5, align 4
  %7 = icmp sge i32 %6, 0
  br i1 %7, label %8, label %30

8:                                                ; preds = %3
  %9 = load ptr, ptr %2, align 8
  %10 = getelementptr inbounds nuw %struct.pg_tzenum, ptr %9, i32 0, i32 2
  %11 = load ptr, ptr %2, align 8
  %12 = getelementptr inbounds nuw %struct.pg_tzenum, ptr %11, i32 0, i32 1
  %13 = load i32, ptr %12, align 4
  %14 = sext i32 %13 to i64
  %15 = getelementptr inbounds [10 x ptr], ptr %10, i64 0, i64 %14
  %16 = load ptr, ptr %15, align 8
  %17 = call i32 @FreeDir(ptr noundef %16)
  %18 = load ptr, ptr %2, align 8
  %19 = getelementptr inbounds nuw %struct.pg_tzenum, ptr %18, i32 0, i32 3
  %20 = load ptr, ptr %2, align 8
  %21 = getelementptr inbounds nuw %struct.pg_tzenum, ptr %20, i32 0, i32 1
  %22 = load i32, ptr %21, align 4
  %23 = sext i32 %22 to i64
  %24 = getelementptr inbounds [10 x ptr], ptr %19, i64 0, i64 %23
  %25 = load ptr, ptr %24, align 8
  call void @pfree(ptr noundef %25)
  %26 = load ptr, ptr %2, align 8
  %27 = getelementptr inbounds nuw %struct.pg_tzenum, ptr %26, i32 0, i32 1
  %28 = load i32, ptr %27, align 4
  %29 = add i32 %28, -1
  store i32 %29, ptr %27, align 4
  br label %3, !llvm.loop !9

30:                                               ; preds = %3
  %31 = load ptr, ptr %2, align 8
  call void @pfree(ptr noundef %31)
  ret void
}