; Function Attrs: nounwind uwtable
define dso_local void @pg_tzenumerate_end(ptr noundef %0) local_unnamed_addr #0 {
  %2 = getelementptr inbounds nuw i8, ptr %0, i64 4
  %3 = load i32, ptr %2, align 4
  %4 = icmp sgt i32 %3, -1
  br i1 %4, label %.lr.ph, label %._crit_edge

.lr.ph:                                           ; preds = %1
  %5 = getelementptr inbounds nuw i8, ptr %0, i64 8
  %6 = getelementptr inbounds nuw i8, ptr %0, i64 88
  br label %7

7:                                                ; preds = %.lr.ph, %7
  %8 = phi i32 [ %3, %.lr.ph ], [ %18, %7 ]
  %9 = zext nneg i32 %8 to i64
  %10 = getelementptr inbounds nuw [10 x ptr], ptr %5, i64 0, i64 %9
  %11 = load ptr, ptr %10, align 8
  %12 = tail call i32 @FreeDir(ptr noundef %11) #10
  %13 = load i32, ptr %2, align 4
  %14 = sext i32 %13 to i64
  %15 = getelementptr inbounds [10 x ptr], ptr %6, i64 0, i64 %14
  %16 = load ptr, ptr %15, align 8
  tail call void @pfree(ptr noundef %16) #10
  %17 = load i32, ptr %2, align 4
  %18 = add i32 %17, -1
  store i32 %18, ptr %2, align 4
  %19 = icmp sgt i32 %18, -1
  br i1 %19, label %7, label %._crit_edge, !llvm.loop !7

._crit_edge:                                      ; preds = %7, %1
  tail call void @pfree(ptr noundef nonnull %0) #10
  ret void
}